target datalayout = "e-m:e-p270:32:32-p271:32:32-p272:64:64-i64:64-i128:128-f80:128-n8:16:32:64-S128"
target triple = "x86_64-pc-linux-gnu"

%struct.ASN1_ITEM_st = type { i8, i64, ptr, i64, ptr, i64, ptr }
%struct.env_md_ctx_st = type { ptr, ptr, ptr, ptr }
%struct.rsa_pss_params_st = type { ptr, ptr, ptr, ptr }

@RSA_PSS_PARAMS_it = hidden constant { i8, [7 x i8], i64, ptr, i64, ptr, i64, ptr } { i8 1, [7 x i8] zeroinitializer, i64 16, ptr @RSA_PSS_PARAMS_seq_tt, i64 4, ptr null, i64 32, ptr @.str }, align 8
@X509_ALGOR_it = external constant %struct.ASN1_ITEM_st, align 8

; Function Attrs: nounwind uwtable
define hidden void @RSA_PSS_PARAMS_free(ptr noundef %0) #0 {
  %2 = alloca ptr, align 8
  store ptr %0, ptr %2, align 8, !tbaa !15
  %3 = load ptr, ptr %2, align 8, !tbaa !15
  call void @ASN1_item_free(ptr noundef %3, ptr noundef @RSA_PSS_PARAMS_it)
  ret void
}

; Function Attrs: nounwind uwtable
define internal i32 @rsa_md_to_mgf1(ptr noundef %0, ptr noundef %1) #0 {
  %3 = alloca i32, align 4
  %4 = alloca ptr, align 8
  %5 = alloca ptr, align 8
  %6 = alloca ptr, align 8
  %7 = alloca ptr, align 8
  %8 = alloca i32, align 4
  store ptr %0, ptr %4, align 8, !tbaa !35
  store ptr %1, ptr %5, align 8, !tbaa !30
  call void @llvm.lifetime.start.p0(i64 8, ptr %6) #3
  store ptr null, ptr %6, align 8, !tbaa !19
  call void @llvm.lifetime.start.p0(i64 8, ptr %7) #3
  store ptr null, ptr %7, align 8, !tbaa !31
  %9 = load ptr, ptr %4, align 8, !tbaa !35
  store ptr null, ptr %9, align 8, !tbaa !19
  %10 = load ptr, ptr %5, align 8, !tbaa !30
  %11 = call i32 @EVP_MD_type(ptr noundef %10)
  %12 = icmp eq i32 %11, 64
  br i1 %12, label %13, label %14

13:                                               ; preds = %2
  store i32 1, ptr %3, align 4
  store i32 1, ptr %8, align 4
  br label %44

14:                                               ; preds = %2
  %15 = load ptr, ptr %5, align 8, !tbaa !30
  %16 = call i32 @rsa_md_to_algor(ptr noundef %6, ptr noundef %15)
  %17 = icmp ne i32 %16, 0
  br i1 %17, label %18, label %22

18:                                               ; preds = %14
  %19 = load ptr, ptr %6, align 8, !tbaa !19
  %20 = call ptr @ASN1_item_pack(ptr noundef %19, ptr noundef @X509_ALGOR_it, ptr noundef %7)
  %21 = icmp ne ptr %20, null
  br i1 %21, label %23, label %22

22:                                               ; preds = %18, %14
  br label %36

23:                                               ; preds = %18
  %24 = call ptr @X509_ALGOR_new()
  %25 = load ptr, ptr %4, align 8, !tbaa !35
  store ptr %24, ptr %25, align 8, !tbaa !19
  %26 = load ptr, ptr %4, align 8, !tbaa !35
  %27 = load ptr, ptr %26, align 8, !tbaa !19
  %28 = icmp ne ptr %27, null
  br i1 %28, label %30, label %29

29:                                               ; preds = %23
  br label %36

30:                                               ; preds = %23
  %31 = load ptr, ptr %4, align 8, !tbaa !35
  %32 = load ptr, ptr %31, align 8, !tbaa !19
  %33 = call ptr @OBJ_nid2obj(i32 noundef 911)
  %34 = load ptr, ptr %7, align 8, !tbaa !31
  %35 = call i32 @X509_ALGOR_set0(ptr noundef %32, ptr noundef %33, i32 noundef 16, ptr noundef %34)
  store ptr null, ptr %7, align 8, !tbaa !31
  br label %36

36:                                               ; preds = %30, %29, %22
  %37 = load ptr, ptr %7, align 8, !tbaa !31
  call void @ASN1_STRING_free(ptr noundef %37)
  %38 = load ptr, ptr %6, align 8, !tbaa !19
  call void @X509_ALGOR_free(ptr noundef %38)
  %39 = load ptr, ptr %4, align 8, !tbaa !35
  %40 = load ptr, ptr %39, align 8, !tbaa !19
  %41 = icmp ne ptr %40, null
  br i1 %41, label %42, label %43

42:                                               ; preds = %36
  store i32 1, ptr %3, align 4
  store i32 1, ptr %8, align 4
  br label %44

43:                                               ; preds = %36
  store i32 0, ptr %3, align 4
  store i32 1, ptr %8, align 4
  br label %44

44:                                               ; preds = %43, %42, %13
  call void @llvm.lifetime.end.p0(i64 8, ptr %7) #3
  call void @llvm.lifetime.end.p0(i64 8, ptr %6) #3
  %45 = load i32, ptr %3, align 4
  ret i32 %45
}

; Function Attrs: nounwind uwtable
define internal i32 @rsa_md_to_algor(ptr noundef %0, ptr noundef %1) #0 {
  %3 = alloca i32, align 4
  %4 = alloca ptr, align 8
  %5 = alloca ptr, align 8
  store ptr %0, ptr %4, align 8, !tbaa !35
  store ptr %1, ptr %5, align 8, !tbaa !30
  %6 = load ptr, ptr %5, align 8, !tbaa !30
  %7 = call i32 @EVP_MD_type(ptr noundef %6)
  %8 = icmp eq i32 %7, 64
  br i1 %8, label %9, label %10

9:                                                ; preds = %2
  store i32 1, ptr %3, align 4
  br label %21

10:                                               ; preds = %2
  %11 = call ptr @X509_ALGOR_new()
  %12 = load ptr, ptr %4, align 8, !tbaa !35
  store ptr %11, ptr %12, align 8, !tbaa !19
  %13 = load ptr, ptr %4, align 8, !tbaa !35
  %14 = load ptr, ptr %13, align 8, !tbaa !19
  %15 = icmp eq ptr %14, null
  br i1 %15, label %16, label %17

16:                                               ; preds = %10
  store i32 0, ptr %3, align 4
  br label %21

17:                                               ; preds = %10
  %18 = load ptr, ptr %4, align 8, !tbaa !35
  %19 = load ptr, ptr %18, align 8, !tbaa !19
  %20 = load ptr, ptr %5, align 8, !tbaa !30
  call void @X509_ALGOR_set_md(ptr noundef %19, ptr noundef %20)
  store i32 1, ptr %3, align 4
  br label %21

21:                                               ; preds = %17, %16, %9
  %22 = load i32, ptr %3, align 4
  ret i32 %22
}

; Function Attrs: nounwind uwtable
define hidden ptr @RSA_PSS_PARAMS_new() #0 {
  %1 = call ptr @ASN1_item_new(ptr noundef @RSA_PSS_PARAMS_it)
  ret ptr %1
}

; Function Attrs: nounwind uwtable
define hidden i32 @x509_rsa_ctx_to_pss(ptr noundef %0, ptr noundef %1) #0 {
  %3 = alloca i32, align 4
  %4 = alloca ptr, align 8
  %5 = alloca ptr, align 8
  %6 = alloca ptr, align 8
  %7 = alloca ptr, align 8
  %8 = alloca i32, align 4
  %9 = alloca i32, align 4
  %10 = alloca ptr, align 8
  %11 = alloca i32, align 4
  %12 = alloca ptr, align 8
  %13 = alloca ptr, align 8
  store ptr %0, ptr %4, align 8, !tbaa !17
  store ptr %1, ptr %5, align 8, !tbaa !19
  call void @llvm.lifetime.start.p0(i64 8, ptr %6) #3
  call void @llvm.lifetime.start.p0(i64 8, ptr %7) #3
  call void @llvm.lifetime.start.p0(i64 4, ptr %8) #3
  %14 = load ptr, ptr %4, align 8, !tbaa !17
  %15 = getelementptr inbounds nuw %struct.env_md_ctx_st, ptr %14, i32 0, i32 2
  %16 = load ptr, ptr %15, align 8, !tbaa !21
  %17 = call i32 @EVP_PKEY_CTX_get_signature_md(ptr noundef %16, ptr noundef %6)
  %18 = icmp ne i32 %17, 0
  br i1 %18, label %19, label %31

19:                                               ; preds = %2
  %20 = load ptr, ptr %4, align 8, !tbaa !17
  %21 = getelementptr inbounds nuw %struct.env_md_ctx_st, ptr %20, i32 0, i32 2
  %22 = load ptr, ptr %21, align 8, !tbaa !21
  %23 = call i32 @EVP_PKEY_CTX_get_rsa_mgf1_md(ptr noundef %22, ptr noundef %7)
  %24 = icmp ne i32 %23, 0
  br i1 %24, label %25, label %31

25:                                               ; preds = %19
  %26 = load ptr, ptr %4, align 8, !tbaa !17
  %27 = getelementptr inbounds nuw %struct.env_md_ctx_st, ptr %26, i32 0, i32 2
  %28 = load ptr, ptr %27, align 8, !tbaa !21
  %29 = call i32 @EVP_PKEY_CTX_get_rsa_pss_saltlen(ptr noundef %28, ptr noundef %8)
  %30 = icmp ne i32 %29, 0
  br i1 %30, label %32, label %31

31:                                               ; preds = %25, %19, %2
  store i32 0, ptr %3, align 4
  store i32 1, ptr %9, align 4
  br label %120

32:                                               ; preds = %25
  call void @llvm.lifetime.start.p0(i64 8, ptr %10) #3
  %33 = load ptr, ptr %4, align 8, !tbaa !17
  %34 = getelementptr inbounds nuw %struct.env_md_ctx_st, ptr %33, i32 0, i32 2
  %35 = load ptr, ptr %34, align 8, !tbaa !21
  %36 = call ptr @EVP_PKEY_CTX_get0_pkey(ptr noundef %35)
  store ptr %36, ptr %10, align 8, !tbaa !26
  %37 = load i32, ptr %8, align 4, !tbaa !28
  %38 = icmp eq i32 %37, -1
  br i1 %38, label %39, label %43

39:                                               ; preds = %32
  %40 = load ptr, ptr %6, align 8, !tbaa !30
  %41 = call i64 @EVP_MD_size(ptr noundef %40)
  %42 = trunc i64 %41 to i32
  store i32 %42, ptr %8, align 4, !tbaa !28
  br label %66

43:                                               ; preds = %32
  %44 = load i32, ptr %8, align 4, !tbaa !28
  %45 = icmp eq i32 %44, -2
  br i1 %45, label %46, label %64

46:                                               ; preds = %43
  %47 = load ptr, ptr %10, align 8, !tbaa !26
  %48 = call i32 @EVP_PKEY_size(ptr noundef %47)
  %49 = sext i32 %48 to i64
  %50 = load ptr, ptr %6, align 8, !tbaa !30
  %51 = call i64 @EVP_MD_size(ptr noundef %50)
  %52 = sub i64 %49, %51
  %53 = sub i64 %52, 2
  %54 = trunc i64 %53 to i32
  store i32 %54, ptr %8, align 4, !tbaa !28
  %55 = load ptr, ptr %10, align 8, !tbaa !26
  %56 = call i32 @EVP_PKEY_bits(ptr noundef %55)
  %57 = sub nsw i32 %56, 1
  %58 = and i32 %57, 7
  %59 = icmp eq i32 %58, 0
  br i1 %59, label %60, label %63

60:                                               ; preds = %46
  %61 = load i32, ptr %8, align 4, !tbaa !28
  %62 = add nsw i32 %61, -1
  store i32 %62, ptr %8, align 4, !tbaa !28
  br label %63

63:                                               ; preds = %60, %46
  br label %65

64:                                               ; preds = %43
  store i32 0, ptr %3, align 4
  store i32 1, ptr %9, align 4
  br label %119

65:                                               ; preds = %63
  br label %66

66:                                               ; preds = %65, %39
  call void @llvm.lifetime.start.p0(i64 4, ptr %11) #3
  store i32 0, ptr %11, align 4, !tbaa !28
  call void @llvm.lifetime.start.p0(i64 8, ptr %12) #3
  store ptr null, ptr %12, align 8, !tbaa !31
  call void @llvm.lifetime.start.p0(i64 8, ptr %13) #3
  %67 = call ptr @RSA_PSS_PARAMS_new()
  store ptr %67, ptr %13, align 8, !tbaa !15
  %68 = load ptr, ptr %13, align 8, !tbaa !15
  %69 = icmp ne ptr %68, null
  br i1 %69, label %71, label %70

70:                                               ; preds = %66
  br label %115

71:                                               ; preds = %66
  %72 = load i32, ptr %8, align 4, !tbaa !28
  %73 = icmp ne i32 %72, 20
  br i1 %73, label %74, label %92

74:                                               ; preds = %71
  %75 = call ptr @ASN1_INTEGER_new()
  %76 = load ptr, ptr %13, align 8, !tbaa !15
  %77 = getelementptr inbounds nuw %struct.rsa_pss_params_st, ptr %76, i32 0, i32 2
  store ptr %75, ptr %77, align 8, !tbaa !33
  %78 = load ptr, ptr %13, align 8, !tbaa !15
  %79 = getelementptr inbounds nuw %struct.rsa_pss_params_st, ptr %78, i32 0, i32 2
  %80 = load ptr, ptr %79, align 8, !tbaa !33
  %81 = icmp ne ptr %80, null
  br i1 %81, label %82, label %90

82:                                               ; preds = %74
  %83 = load ptr, ptr %13, align 8, !tbaa !15
  %84 = getelementptr inbounds nuw %struct.rsa_pss_params_st, ptr %83, i32 0, i32 2
  %85 = load ptr, ptr %84, align 8, !tbaa !33
  %86 = load i32, ptr %8, align 4, !tbaa !28
  %87 = sext i32 %86 to i64
  %88 = call i32 @ASN1_INTEGER_set(ptr noundef %85, i64 noundef %87)
  %89 = icmp ne i32 %88, 0
  br i1 %89, label %91, label %90

90:                                               ; preds = %82, %74
  br label %115

91:                                               ; preds = %82
  br label %92

92:                                               ; preds = %91, %71
  %93 = load ptr, ptr %13, align 8, !tbaa !15
  %94 = getelementptr inbounds nuw %struct.rsa_pss_params_st, ptr %93, i32 0, i32 0
  %95 = load ptr, ptr %6, align 8, !tbaa !30
  %96 = call i32 @rsa_md_to_algor(ptr noundef %94, ptr noundef %95)
  %97 = icmp ne i32 %96, 0
  br i1 %97, label %98, label %104

98:                                               ; preds = %92
  %99 = load ptr, ptr %13, align 8, !tbaa !15
  %100 = getelementptr inbounds nuw %struct.rsa_pss_params_st, ptr %99, i32 0, i32 1
  %101 = load ptr, ptr %7, align 8, !tbaa !30
  %102 = call i32 @rsa_md_to_mgf1(ptr noundef %100, ptr noundef %101)
  %103 = icmp ne i32 %102, 0
  br i1 %103, label %105, label %104

104:                                              ; preds = %98, %92
  br label %115

105:                                              ; preds = %98
  %106 = load ptr, ptr %13, align 8, !tbaa !15
  %107 = call ptr @ASN1_item_pack(ptr noundef %106, ptr noundef @RSA_PSS_PARAMS_it, ptr noundef %12)
  %108 = icmp ne ptr %107, null
  br i1 %108, label %110, label %109

109:                                              ; preds = %105
  br label %115

110:                                              ; preds = %105
  %111 = load ptr, ptr %5, align 8, !tbaa !19
  %112 = call ptr @OBJ_nid2obj(i32 noundef 912)
  %113 = load ptr, ptr %12, align 8, !tbaa !31
  %114 = call i32 @X509_ALGOR_set0(ptr noundef %111, ptr noundef %112, i32 noundef 16, ptr noundef %113)
  store ptr null, ptr %12, align 8, !tbaa !31
  store i32 1, ptr %11, align 4, !tbaa !28
  br label %115

115:                                              ; preds = %110, %109, %104, %90, %70
  %116 = load ptr, ptr %13, align 8, !tbaa !15
  call void @RSA_PSS_PARAMS_free(ptr noundef %116)
  %117 = load ptr, ptr %12, align 8, !tbaa !31
  call void @ASN1_STRING_free(ptr noundef %117)
  %118 = load i32, ptr %11, align 4, !tbaa !28
  store i32 %118, ptr %3, align 4
  store i32 1, ptr %9, align 4
  call void @llvm.lifetime.end.p0(i64 8, ptr %13) #3
  call void @llvm.lifetime.end.p0(i64 8, ptr %12) #3
  call void @llvm.lifetime.end.p0(i64 4, ptr %11) #3
  br label %119

119:                                              ; preds = %115, %64
  call void @llvm.lifetime.end.p0(i64 8, ptr %10) #3
  br label %120

120:                                              ; preds = %119, %31
  call void @llvm.lifetime.end.p0(i64 4, ptr %8) #3
  call void @llvm.lifetime.end.p0(i64 8, ptr %7) #3
  call void @llvm.lifetime.end.p0(i64 8, ptr %6) #3
  %121 = load i32, ptr %3, align 4
  ret i32 %121
}