; Function Attrs: nounwind uwtable
define hidden range(i32 0, 2) i32 @x509_rsa_ctx_to_pss(ptr noundef readonly captures(none) %0, ptr noundef %1) local_unnamed_addr #0 {
  %3 = alloca ptr, align 8
  %4 = alloca ptr, align 8
  %5 = alloca ptr, align 8
  %6 = alloca i32, align 4
  %7 = alloca ptr, align 8
  call void @llvm.lifetime.start.p0(i64 8, ptr nonnull %4) #3
  call void @llvm.lifetime.start.p0(i64 8, ptr nonnull %5) #3
  call void @llvm.lifetime.start.p0(i64 4, ptr nonnull %6) #3
  %8 = getelementptr inbounds nuw i8, ptr %0, i64 16
  %9 = load ptr, ptr %8, align 8, !tbaa !6
  %10 = call i32 @EVP_PKEY_CTX_get_signature_md(ptr noundef %9, ptr noundef nonnull %4) #3
  %.not = icmp eq i32 %10, 0
  br i1 %.not, label %86, label %11

11:                                               ; preds = %2
  %12 = load ptr, ptr %8, align 8, !tbaa !6
  %13 = call i32 @EVP_PKEY_CTX_get_rsa_mgf1_md(ptr noundef %12, ptr noundef nonnull %5) #3
  %.not20 = icmp eq i32 %13, 0
  br i1 %.not20, label %86, label %14

14:                                               ; preds = %11
  %15 = load ptr, ptr %8, align 8, !tbaa !6
  %16 = call i32 @EVP_PKEY_CTX_get_rsa_pss_saltlen(ptr noundef %15, ptr noundef nonnull %6) #3
  %.not21 = icmp eq i32 %16, 0
  br i1 %.not21, label %86, label %17

17:                                               ; preds = %14
  %18 = load ptr, ptr %8, align 8, !tbaa !6
  %19 = call ptr @EVP_PKEY_CTX_get0_pkey(ptr noundef %18) #3
  %20 = load i32, ptr %6, align 4, !tbaa !14
  switch i32 %20, label %86 [
    i32 -1, label %21
    i32 -2, label %25
  ]

21:                                               ; preds = %17
  %22 = load ptr, ptr %4, align 8, !tbaa !16
  %23 = call i64 @EVP_MD_size(ptr noundef %22) #3
  %24 = trunc i64 %23 to i32
  br label %.sink.split

25:                                               ; preds = %17
  %26 = call i32 @EVP_PKEY_size(ptr noundef %19) #3
  %27 = load ptr, ptr %4, align 8, !tbaa !16
  %28 = call i64 @EVP_MD_size(ptr noundef %27) #3
  %29 = trunc i64 %28 to i32
  %30 = add i32 %26, -2
  %31 = sub i32 %30, %29
  store i32 %31, ptr %6, align 4, !tbaa !14
  %32 = call i32 @EVP_PKEY_bits(ptr noundef %19) #3
  %33 = and i32 %32, 7
  %34 = icmp eq i32 %33, 1
  br i1 %34, label %35, label %38

35:                                               ; preds = %25
  %36 = load i32, ptr %6, align 4, !tbaa !14
  %37 = add nsw i32 %36, -1
  br label %.sink.split

.sink.split:                                      ; preds = %21, %35
  %.sink = phi i32 [ %37, %35 ], [ %24, %21 ]
  store i32 %.sink, ptr %6, align 4, !tbaa !14
  br label %38

38:                                               ; preds = %.sink.split, %25
  call void @llvm.lifetime.start.p0(i64 8, ptr nonnull %7) #3
  store ptr null, ptr %7, align 8, !tbaa !17
  %39 = call ptr @ASN1_item_new(ptr noundef nonnull @RSA_PSS_PARAMS_it) #3
  %.not22 = icmp eq ptr %39, null
  br i1 %.not22, label %rsa_md_to_algor.exit, label %40

40:                                               ; preds = %38
  %41 = load i32, ptr %6, align 4, !tbaa !14
  %.not23 = icmp eq i32 %41, 20
  br i1 %.not23, label %49, label %42

42:                                               ; preds = %40
  %43 = call ptr @ASN1_INTEGER_new() #3
  %44 = getelementptr inbounds nuw i8, ptr %39, i64 16
  store ptr %43, ptr %44, align 8, !tbaa !19
  %.not24 = icmp eq ptr %43, null
  br i1 %.not24, label %rsa_md_to_algor.exit, label %45

45:                                               ; preds = %42
  %46 = load i32, ptr %6, align 4, !tbaa !14
  %47 = sext i32 %46 to i64
  %48 = call i32 @ASN1_INTEGER_set(ptr noundef nonnull %43, i64 noundef %47) #3
  %.not25 = icmp eq i32 %48, 0
  br i1 %.not25, label %rsa_md_to_algor.exit, label %49

49:                                               ; preds = %45, %40
  %50 = load ptr, ptr %4, align 8, !tbaa !16
  %51 = call i32 @EVP_MD_type(ptr noundef %50) #3
  %52 = icmp eq i32 %51, 64
  br i1 %52, label %57, label %53

53:                                               ; preds = %49
  %54 = call ptr @X509_ALGOR_new() #3
  store ptr %54, ptr %39, align 8, !tbaa !22
  %55 = icmp eq ptr %54, null
  br i1 %55, label %rsa_md_to_algor.exit, label %56

56:                                               ; preds = %53
  call void @X509_ALGOR_set_md(ptr noundef nonnull %54, ptr noundef %50) #3
  br label %57

57:                                               ; preds = %56, %49
  %58 = getelementptr inbounds nuw i8, ptr %39, i64 8
  %59 = load ptr, ptr %5, align 8, !tbaa !16
  call void @llvm.lifetime.start.p0(i64 8, ptr nonnull %3) #3
  store ptr null, ptr %3, align 8, !tbaa !17
  store ptr null, ptr %58, align 8, !tbaa !22
  %60 = call i32 @EVP_MD_type(ptr noundef %59) #3
  %61 = icmp eq i32 %60, 64
  br i1 %61, label %rsa_md_to_mgf1.exit.thread, label %62

rsa_md_to_mgf1.exit.thread:                       ; preds = %57
  call void @llvm.lifetime.end.p0(i64 8, ptr nonnull %3) #3
  br label %79

62:                                               ; preds = %57
  %63 = call i32 @EVP_MD_type(ptr noundef %59) #3
  %64 = icmp eq i32 %63, 64
  br i1 %64, label %69, label %65

65:                                               ; preds = %62
  %66 = call ptr @X509_ALGOR_new() #3
  %67 = icmp eq ptr %66, null
  br i1 %67, label %rsa_md_to_mgf1.exit, label %68

68:                                               ; preds = %65
  call void @X509_ALGOR_set_md(ptr noundef nonnull %66, ptr noundef %59) #3
  br label %69

69:                                               ; preds = %68, %62
  %.012.ph.i = phi ptr [ %66, %68 ], [ null, %62 ]
  %70 = call ptr @ASN1_item_pack(ptr noundef %.012.ph.i, ptr noundef nonnull @X509_ALGOR_it, ptr noundef nonnull %3) #3
  %.not8.i = icmp eq ptr %70, null
  br i1 %.not8.i, label %rsa_md_to_mgf1.exit, label %71

71:                                               ; preds = %69
  %72 = call ptr @X509_ALGOR_new() #3
  store ptr %72, ptr %58, align 8, !tbaa !22
  %.not9.i = icmp eq ptr %72, null
  br i1 %.not9.i, label %rsa_md_to_mgf1.exit, label %73

73:                                               ; preds = %71
  %74 = call ptr @OBJ_nid2obj(i32 noundef 911) #3
  %75 = load ptr, ptr %3, align 8, !tbaa !17
  %76 = call i32 @X509_ALGOR_set0(ptr noundef nonnull %72, ptr noundef %74, i32 noundef 16, ptr noundef %75) #3
  store ptr null, ptr %3, align 8, !tbaa !17
  br label %rsa_md_to_mgf1.exit

rsa_md_to_mgf1.exit:                              ; preds = %65, %69, %71, %73
  %.01217.i = phi ptr [ %.012.ph.i, %71 ], [ %.012.ph.i, %69 ], [ %.012.ph.i, %73 ], [ null, %65 ]
  %77 = load ptr, ptr %3, align 8, !tbaa !17
  call void @ASN1_STRING_free(ptr noundef %77) #3
  call void @X509_ALGOR_free(ptr noundef %.01217.i) #3
  %78 = load ptr, ptr %58, align 8, !tbaa !22
  %.not10.i.not = icmp eq ptr %78, null
  call void @llvm.lifetime.end.p0(i64 8, ptr nonnull %3) #3
  br i1 %.not10.i.not, label %rsa_md_to_algor.exit, label %79

79:                                               ; preds = %rsa_md_to_mgf1.exit.thread, %rsa_md_to_mgf1.exit
  %80 = call ptr @ASN1_item_pack(ptr noundef nonnull %39, ptr noundef nonnull @RSA_PSS_PARAMS_it, ptr noundef nonnull %7) #3
  %.not28 = icmp eq ptr %80, null
  br i1 %.not28, label %rsa_md_to_algor.exit, label %81

81:                                               ; preds = %79
  %82 = call ptr @OBJ_nid2obj(i32 noundef 912) #3
  %83 = load ptr, ptr %7, align 8, !tbaa !17
  %84 = call i32 @X509_ALGOR_set0(ptr noundef %1, ptr noundef %82, i32 noundef 16, ptr noundef %83) #3
  store ptr null, ptr %7, align 8, !tbaa !17
  br label %rsa_md_to_algor.exit

rsa_md_to_algor.exit:                             ; preds = %53, %79, %rsa_md_to_mgf1.exit, %42, %45, %38, %81
  %.016 = phi i32 [ 1, %81 ], [ 0, %79 ], [ 0, %rsa_md_to_mgf1.exit ], [ 0, %45 ], [ 0, %42 ], [ 0, %38 ], [ 0, %53 ]
  call void @ASN1_item_free(ptr noundef %39, ptr noundef nonnull @RSA_PSS_PARAMS_it) #3
  %85 = load ptr, ptr %7, align 8, !tbaa !17
  call void @ASN1_STRING_free(ptr noundef %85) #3
  call void @llvm.lifetime.end.p0(i64 8, ptr nonnull %7) #3
  br label %86

86:                                               ; preds = %rsa_md_to_algor.exit, %17, %2, %11, %14
  %.0 = phi i32 [ 0, %14 ], [ 0, %11 ], [ 0, %2 ], [ %.016, %rsa_md_to_algor.exit ], [ 0, %17 ]
  call void @llvm.lifetime.end.p0(i64 4, ptr nonnull %6) #3
  call void @llvm.lifetime.end.p0(i64 8, ptr nonnull %5) #3
  call void @llvm.lifetime.end.p0(i64 8, ptr nonnull %4) #3
  ret i32 %.0
}